target datalayout = "e-m:e-p270:32:32-p271:32:32-p272:64:64-i64:64-i128:128-f80:128-n8:16:32:64-S128"
target triple = "x86_64-pc-linux-gnu"

%struct.lua_TValue = type { %union.Value, [1 x i32], i32 }
%union.Value = type { ptr }
%union.L_Umaxalign = type { double }
%struct.Buffer = type { i8, i8, i8, i32, %union.anon.5 }
%union.anon.5 = type { %union.L_Umaxalign }

; Function Attrs: mustprogress nounwind uwtable
define internal noundef i32 @_ZL13luauF_writefpIdEiP9lua_StateP10lua_TValueS3_iS3_i(ptr noundef %0, ptr noundef %1, ptr noundef %2, i32 noundef %3, ptr noundef %4, i32 noundef %5) #0 {
  %7 = alloca i32, align 4
  %8 = alloca ptr, align 8
  %9 = alloca ptr, align 8
  %10 = alloca ptr, align 8
  %11 = alloca i32, align 4
  %12 = alloca ptr, align 8
  %13 = alloca i32, align 4
  %14 = alloca i32, align 4
  %15 = alloca i32, align 4
  %16 = alloca double, align 8
  store ptr %0, ptr %8, align 8, !tbaa !4
  store ptr %1, ptr %9, align 8, !tbaa !9
  store ptr %2, ptr %10, align 8, !tbaa !9
  store i32 %3, ptr %11, align 4, !tbaa !11
  store ptr %4, ptr %12, align 8, !tbaa !9
  store i32 %5, ptr %13, align 4, !tbaa !11
  %17 = load i32, ptr %13, align 4, !tbaa !11
  %18 = icmp sge i32 %17, 3
  br i1 %18, label %19, label %68

19:                                               ; preds = %6
  %20 = load i32, ptr %11, align 4, !tbaa !11
  %21 = icmp sle i32 %20, 0
  br i1 %21, label %22, label %68

22:                                               ; preds = %19
  %23 = load ptr, ptr %10, align 8, !tbaa !9
  %24 = getelementptr inbounds nuw %struct.lua_TValue, ptr %23, i32 0, i32 2
  %25 = load i32, ptr %24, align 4, !tbaa !13
  %26 = icmp eq i32 %25, 10
  br i1 %26, label %27, label %68

27:                                               ; preds = %22
  %28 = load ptr, ptr %12, align 8, !tbaa !9
  %29 = getelementptr inbounds nuw %struct.lua_TValue, ptr %28, i32 0, i32 2
  %30 = load i32, ptr %29, align 4, !tbaa !13
  %31 = icmp eq i32 %30, 3
  br i1 %31, label %32, label %68

32:                                               ; preds = %27
  %33 = load ptr, ptr %12, align 8, !tbaa !9
  %34 = getelementptr inbounds %struct.lua_TValue, ptr %33, i64 1
  %35 = getelementptr inbounds nuw %struct.lua_TValue, ptr %34, i32 0, i32 2
  %36 = load i32, ptr %35, align 4, !tbaa !13
  %37 = icmp eq i32 %36, 3
  br i1 %37, label %38, label %68

38:                                               ; preds = %32
  call void @llvm.lifetime.start.p0(i64 4, ptr %14) #17
  %39 = load ptr, ptr %12, align 8, !tbaa !9
  %40 = getelementptr inbounds nuw %struct.lua_TValue, ptr %39, i32 0, i32 0
  %41 = load double, ptr %40, align 8, !tbaa !15
  %42 = fptosi double %41 to i32
  store i32 %42, ptr %14, align 4, !tbaa !11
  %43 = load i32, ptr %14, align 4, !tbaa !11
  %44 = zext i32 %43 to i64
  %45 = add i64 %44, 7
  %46 = load ptr, ptr %10, align 8, !tbaa !9
  %47 = getelementptr inbounds nuw %struct.lua_TValue, ptr %46, i32 0, i32 0
  %48 = load ptr, ptr %47, align 8, !tbaa !15
  %49 = getelementptr inbounds nuw %struct.Buffer, ptr %48, i32 0, i32 3
  %50 = load i32, ptr %49, align 4, !tbaa !83
  %51 = zext i32 %50 to i64
  %52 = icmp uge i64 %45, %51
  br i1 %52, label %53, label %54

53:                                               ; preds = %38
  store i32 -1, ptr %7, align 4
  store i32 1, ptr %15, align 4
  br label %67

54:                                               ; preds = %38
  call void @llvm.lifetime.start.p0(i64 8, ptr %16) #17
  %55 = load ptr, ptr %12, align 8, !tbaa !9
  %56 = getelementptr inbounds %struct.lua_TValue, ptr %55, i64 1
  %57 = getelementptr inbounds nuw %struct.lua_TValue, ptr %56, i32 0, i32 0
  %58 = load double, ptr %57, align 8, !tbaa !15
  store double %58, ptr %16, align 8, !tbaa !16
  %59 = load ptr, ptr %10, align 8, !tbaa !9
  %60 = getelementptr inbounds nuw %struct.lua_TValue, ptr %59, i32 0, i32 0
  %61 = load ptr, ptr %60, align 8, !tbaa !15
  %62 = getelementptr inbounds nuw %struct.Buffer, ptr %61, i32 0, i32 4
  %63 = getelementptr inbounds [1 x i8], ptr %62, i64 0, i64 0
  %64 = load i32, ptr %14, align 4, !tbaa !11
  %65 = zext i32 %64 to i64
  %66 = getelementptr inbounds nuw i8, ptr %63, i64 %65
  call void @llvm.memcpy.p0.p0.i64(ptr align 1 %66, ptr align 8 %16, i64 8, i1 false)
  store i32 0, ptr %7, align 4
  store i32 1, ptr %15, align 4
  call void @llvm.lifetime.end.p0(i64 8, ptr %16) #17
  br label %67

67:                                               ; preds = %54, %53
  call void @llvm.lifetime.end.p0(i64 4, ptr %14) #17
  br label %69

68:                                               ; preds = %32, %27, %22, %19, %6
  store i32 -1, ptr %7, align 4
  br label %69

69:                                               ; preds = %68, %67
  %70 = load i32, ptr %7, align 4
  ret i32 %70
}